target datalayout = "e-m:e-p270:32:32-p271:32:32-p272:64:64-i64:64-i128:128-f80:128-n8:16:32:64-S128"
target triple = "x86_64-pc-linux-gnu"

%struct.lua_TValue = type { %union.Value, [1 x i32], i32 }
%union.Value = type { ptr }
%struct.TString = type { i8, i8, i8, i16, ptr, i32, i32, [1 x i8] }

@.str.5 = private unnamed_addr constant [14 x i8] c"initial value\00", align 1
@.str.6 = private unnamed_addr constant [6 x i8] c"limit\00", align 1
@.str.7 = private unnamed_addr constant [5 x i8] c"step\00", align 1

; Function Attrs: mustprogress uwtable
define hidden noundef ptr @_Z13luaV_tonumberPK10lua_TValuePS_(ptr noundef %0, ptr noundef %1) #0 {
  %3 = alloca ptr, align 8
  %4 = alloca ptr, align 8
  %5 = alloca ptr, align 8
  %6 = alloca double, align 8
  %7 = alloca i32, align 4
  %8 = alloca ptr, align 8
  store ptr %0, ptr %4, align 8, !tbaa !4
  store ptr %1, ptr %5, align 8, !tbaa !4
  call void @llvm.lifetime.start.p0(i64 8, ptr %6) #11
  %9 = load ptr, ptr %4, align 8, !tbaa !4
  %10 = getelementptr inbounds nuw %struct.lua_TValue, ptr %9, i32 0, i32 2
  %11 = load i32, ptr %10, align 4, !tbaa !9
  %12 = icmp eq i32 %11, 3
  br i1 %12, label %13, label %15

13:                                               ; preds = %2
  %14 = load ptr, ptr %4, align 8, !tbaa !4
  store ptr %14, ptr %3, align 8
  store i32 1, ptr %7, align 4
  br label %37

15:                                               ; preds = %2
  %16 = load ptr, ptr %4, align 8, !tbaa !4
  %17 = getelementptr inbounds nuw %struct.lua_TValue, ptr %16, i32 0, i32 2
  %18 = load i32, ptr %17, align 4, !tbaa !9
  %19 = icmp eq i32 %18, 5
  br i1 %19, label %20, label %36

20:                                               ; preds = %15
  %21 = load ptr, ptr %4, align 8, !tbaa !4
  %22 = getelementptr inbounds nuw %struct.lua_TValue, ptr %21, i32 0, i32 0
  %23 = load ptr, ptr %22, align 8, !tbaa !12
  %24 = getelementptr inbounds nuw %struct.TString, ptr %23, i32 0, i32 7
  %25 = getelementptr inbounds [1 x i8], ptr %24, i64 0, i64 0
  %26 = call noundef i32 @_Z10luaO_str2dPKcPd(ptr noundef %25, ptr noundef %6)
  %27 = icmp ne i32 %26, 0
  br i1 %27, label %28, label %36

28:                                               ; preds = %20
  call void @llvm.lifetime.start.p0(i64 8, ptr %8) #11
  %29 = load ptr, ptr %5, align 8, !tbaa !4
  store ptr %29, ptr %8, align 8, !tbaa !4
  %30 = load double, ptr %6, align 8, !tbaa !13
  %31 = load ptr, ptr %8, align 8, !tbaa !4
  %32 = getelementptr inbounds nuw %struct.lua_TValue, ptr %31, i32 0, i32 0
  store double %30, ptr %32, align 8, !tbaa !12
  %33 = load ptr, ptr %8, align 8, !tbaa !4
  %34 = getelementptr inbounds nuw %struct.lua_TValue, ptr %33, i32 0, i32 2
  store i32 3, ptr %34, align 4, !tbaa !9
  call void @llvm.lifetime.end.p0(i64 8, ptr %8) #11
  %35 = load ptr, ptr %5, align 8, !tbaa !4
  store ptr %35, ptr %3, align 8
  store i32 1, ptr %7, align 4
  br label %37

36:                                               ; preds = %20, %15
  store ptr null, ptr %3, align 8
  store i32 1, ptr %7, align 4
  br label %37

37:                                               ; preds = %36, %28, %13
  call void @llvm.lifetime.end.p0(i64 8, ptr %6) #11
  %38 = load ptr, ptr %3, align 8
  ret ptr %38
}

; Function Attrs: mustprogress noinline uwtable
define hidden void @_Z16luaV_prepareFORNP9lua_StateP10lua_TValueS2_S2_(ptr noundef %0, ptr noundef %1, ptr noundef %2, ptr noundef %3) #10 {
  %5 = alloca ptr, align 8
  %6 = alloca ptr, align 8
  %7 = alloca ptr, align 8
  %8 = alloca ptr, align 8
  store ptr %0, ptr %5, align 8, !tbaa !15
  store ptr %1, ptr %6, align 8, !tbaa !4
  store ptr %2, ptr %7, align 8, !tbaa !4
  store ptr %3, ptr %8, align 8, !tbaa !4
  %9 = load ptr, ptr %8, align 8, !tbaa !4
  %10 = getelementptr inbounds nuw %struct.lua_TValue, ptr %9, i32 0, i32 2
  %11 = load i32, ptr %10, align 4, !tbaa !9
  %12 = icmp eq i32 %11, 3
  br i1 %12, label %21, label %13

13:                                               ; preds = %4
  %14 = load ptr, ptr %8, align 8, !tbaa !4
  %15 = load ptr, ptr %8, align 8, !tbaa !4
  %16 = call noundef ptr @_Z13luaV_tonumberPK10lua_TValuePS_(ptr noundef %14, ptr noundef %15)
  %17 = icmp ne ptr %16, null
  br i1 %17, label %21, label %18

18:                                               ; preds = %13
  %19 = load ptr, ptr %5, align 8, !tbaa !15
  %20 = load ptr, ptr %8, align 8, !tbaa !4
  call void @_Z14luaG_forerrorLP9lua_StatePK10lua_TValuePKc(ptr noundef %19, ptr noundef %20, ptr noundef @.str.5) #12
  unreachable

21:                                               ; preds = %13, %4
  %22 = load ptr, ptr %6, align 8, !tbaa !4
  %23 = getelementptr inbounds nuw %struct.lua_TValue, ptr %22, i32 0, i32 2
  %24 = load i32, ptr %23, align 4, !tbaa !9
  %25 = icmp eq i32 %24, 3
  br i1 %25, label %34, label %26

26:                                               ; preds = %21
  %27 = load ptr, ptr %6, align 8, !tbaa !4
  %28 = load ptr, ptr %6, align 8, !tbaa !4
  %29 = call noundef ptr @_Z13luaV_tonumberPK10lua_TValuePS_(ptr noundef %27, ptr noundef %28)
  %30 = icmp ne ptr %29, null
  br i1 %30, label %34, label %31

31:                                               ; preds = %26
  %32 = load ptr, ptr %5, align 8, !tbaa !15
  %33 = load ptr, ptr %6, align 8, !tbaa !4
  call void @_Z14luaG_forerrorLP9lua_StatePK10lua_TValuePKc(ptr noundef %32, ptr noundef %33, ptr noundef @.str.6) #12
  unreachable

34:                                               ; preds = %26, %21
  %35 = load ptr, ptr %7, align 8, !tbaa !4
  %36 = getelementptr inbounds nuw %struct.lua_TValue, ptr %35, i32 0, i32 2
  %37 = load i32, ptr %36, align 4, !tbaa !9
  %38 = icmp eq i32 %37, 3
  br i1 %38, label %47, label %39

39:                                               ; preds = %34
  %40 = load ptr, ptr %7, align 8, !tbaa !4
  %41 = load ptr, ptr %7, align 8, !tbaa !4
  %42 = call noundef ptr @_Z13luaV_tonumberPK10lua_TValuePS_(ptr noundef %40, ptr noundef %41)
  %43 = icmp ne ptr %42, null
  br i1 %43, label %47, label %44

44:                                               ; preds = %39
  %45 = load ptr, ptr %5, align 8, !tbaa !15
  %46 = load ptr, ptr %7, align 8, !tbaa !4
  call void @_Z14luaG_forerrorLP9lua_StatePK10lua_TValuePKc(ptr noundef %45, ptr noundef %46, ptr noundef @.str.7) #12
  unreachable

47:                                               ; preds = %39, %34
  ret void
}