; Function Attrs: mustprogress noinline uwtable
define hidden void @_Z16luaV_prepareFORNP9lua_StateP10lua_TValueS2_S2_(ptr noundef %0, ptr noundef %1, ptr noundef %2, ptr noundef %3) local_unnamed_addr #9 {
  %5 = alloca double, align 8
  %6 = alloca double, align 8
  %7 = alloca double, align 8
  %8 = getelementptr inbounds nuw i8, ptr %3, i64 12
  %9 = load i32, ptr %8, align 4, !tbaa !4
  %10 = icmp eq i32 %9, 3
  br i1 %10, label %18, label %11

11:                                               ; preds = %4
  call void @llvm.lifetime.start.p0(i64 8, ptr nonnull %7) #11
  %cond30 = icmp eq i32 %9, 5
  br i1 %cond30, label %12, label %17

12:                                               ; preds = %11
  %13 = load ptr, ptr %3, align 8, !tbaa !9
  %14 = getelementptr inbounds nuw i8, ptr %13, i64 24
  %15 = call noundef i32 @_Z10luaO_str2dPKcPd(ptr noundef nonnull %14, ptr noundef nonnull %7)
  %.not.i = icmp eq i32 %15, 0
  br i1 %.not.i, label %17, label %_Z13luaV_tonumberPK10lua_TValuePS_.exit.thread

_Z13luaV_tonumberPK10lua_TValuePS_.exit.thread:   ; preds = %12
  %16 = load double, ptr %7, align 8, !tbaa !10
  store double %16, ptr %3, align 8, !tbaa !9
  store i32 3, ptr %8, align 4, !tbaa !4
  call void @llvm.lifetime.end.p0(i64 8, ptr nonnull %7) #11
  br label %18

17:                                               ; preds = %11, %12
  call void @llvm.lifetime.end.p0(i64 8, ptr nonnull %7) #11
  call void @_Z14luaG_forerrorLP9lua_StatePK10lua_TValuePKc(ptr noundef %0, ptr noundef nonnull %3, ptr noundef nonnull @.str.5) #12
  unreachable

18:                                               ; preds = %_Z13luaV_tonumberPK10lua_TValuePS_.exit.thread, %4
  %19 = getelementptr inbounds nuw i8, ptr %1, i64 12
  %20 = load i32, ptr %19, align 4, !tbaa !4
  %21 = icmp eq i32 %20, 3
  br i1 %21, label %29, label %22

22:                                               ; preds = %18
  call void @llvm.lifetime.start.p0(i64 8, ptr nonnull %6) #11
  %cond29 = icmp eq i32 %20, 5
  br i1 %cond29, label %23, label %28

23:                                               ; preds = %22
  %24 = load ptr, ptr %1, align 8, !tbaa !9
  %25 = getelementptr inbounds nuw i8, ptr %24, i64 24
  %26 = call noundef i32 @_Z10luaO_str2dPKcPd(ptr noundef nonnull %25, ptr noundef nonnull %6)
  %.not.i17 = icmp eq i32 %26, 0
  br i1 %.not.i17, label %28, label %_Z13luaV_tonumberPK10lua_TValuePS_.exit19.thread

_Z13luaV_tonumberPK10lua_TValuePS_.exit19.thread: ; preds = %23
  %27 = load double, ptr %6, align 8, !tbaa !10
  store double %27, ptr %1, align 8, !tbaa !9
  store i32 3, ptr %19, align 4, !tbaa !4
  call void @llvm.lifetime.end.p0(i64 8, ptr nonnull %6) #11
  br label %29

28:                                               ; preds = %22, %23
  call void @llvm.lifetime.end.p0(i64 8, ptr nonnull %6) #11
  call void @_Z14luaG_forerrorLP9lua_StatePK10lua_TValuePKc(ptr noundef %0, ptr noundef nonnull %1, ptr noundef nonnull @.str.6) #12
  unreachable

29:                                               ; preds = %_Z13luaV_tonumberPK10lua_TValuePS_.exit19.thread, %18
  %30 = getelementptr inbounds nuw i8, ptr %2, i64 12
  %31 = load i32, ptr %30, align 4, !tbaa !4
  %32 = icmp eq i32 %31, 3
  br i1 %32, label %40, label %33

33:                                               ; preds = %29
  call void @llvm.lifetime.start.p0(i64 8, ptr nonnull %5) #11
  %cond = icmp eq i32 %31, 5
  br i1 %cond, label %34, label %39

34:                                               ; preds = %33
  %35 = load ptr, ptr %2, align 8, !tbaa !9
  %36 = getelementptr inbounds nuw i8, ptr %35, i64 24
  %37 = call noundef i32 @_Z10luaO_str2dPKcPd(ptr noundef nonnull %36, ptr noundef nonnull %5)
  %.not.i20 = icmp eq i32 %37, 0
  br i1 %.not.i20, label %39, label %_Z13luaV_tonumberPK10lua_TValuePS_.exit22.thread

_Z13luaV_tonumberPK10lua_TValuePS_.exit22.thread: ; preds = %34
  %38 = load double, ptr %5, align 8, !tbaa !10
  store double %38, ptr %2, align 8, !tbaa !9
  store i32 3, ptr %30, align 4, !tbaa !4
  call void @llvm.lifetime.end.p0(i64 8, ptr nonnull %5) #11
  br label %40

39:                                               ; preds = %33, %34
  call void @llvm.lifetime.end.p0(i64 8, ptr nonnull %5) #11
  call void @_Z14luaG_forerrorLP9lua_StatePK10lua_TValuePKc(ptr noundef %0, ptr noundef nonnull %2, ptr noundef nonnull @.str.7) #12
  unreachable

40:                                               ; preds = %_Z13luaV_tonumberPK10lua_TValuePS_.exit22.thread, %29
  ret void
}